Certificate:
    Data:
        Version: 3 (0x2)
        Serial Number: 1 (0x1)
    Signature Algorithm: sha256WithRSAEncryption
        Issuer: C=CN, ST=Beijing, L=Beijing, O=EverString, OU=Operation, CN=EverString CA/name=ca/emailAddress=admin@everstring.com
        Validity
            Not Before: Jun  8 00:06:33 2015 GMT
            Not After : Jun  5 00:06:33 2025 GMT
        Subject: C=CN, ST=Beijing, L=Beijing, O=EverString, OU=Operation, CN=BJ/name=BJ/emailAddress=admin@everstring.com
        Subject Public Key Info:
            Public Key Algorithm: rsaEncryption
                Public-Key: (2048 bit)
                Modulus:
                    00:b6:01:ce:ba:fe:b0:9f:52:0d:05:86:ab:a8:b0:
                    3d:84:96:86:bd:ae:95:2c:76:0c:fd:c9:e1:5f:9b:
                    57:f5:ce:f2:56:24:6f:21:ec:10:66:09:bb:cd:56:
                    9f:61:57:06:68:2f:8c:00:1b:f6:37:4f:90:28:37:
                    e0:aa:7b:fb:ec:b5:b2:c3:55:e4:c8:f5:1d:5e:e5:
                    26:e6:85:c1:3d:5e:58:1b:c0:44:1f:95:82:d1:19:
                    96:26:85:6a:cc:e1:46:51:e9:b4:7d:57:2c:77:0b:
                    05:0e:cf:6b:6c:ab:83:4e:a6:3a:c3:ba:28:dc:d6:
                    b0:b3:b6:51:e2:87:e5:5c:72:76:b8:59:66:2e:ef:
                    30:ef:62:df:be:bd:9d:69:81:8b:6d:fc:dd:ad:a1:
                    f7:32:d9:35:90:17:54:42:dd:b7:67:3b:25:d0:3e:
                    02:ed:fa:96:77:2b:27:a2:1f:92:18:e3:bc:93:6d:
                    0c:bc:41:be:3e:3d:de:cc:94:34:f2:a1:0d:a7:10:
                    09:f1:c8:ee:65:2c:c3:ef:9e:a3:42:a0:38:f8:2a:
                    e7:a3:e2:b8:87:9b:4a:b4:99:4e:ee:62:5e:9d:4d:
                    fc:f3:25:5a:2a:41:37:a9:76:da:e2:a5:0c:26:33:
                    1e:e5:9c:a1:dd:b2:d0:02:d7:f0:75:1a:60:69:f0:
                    28:63
                Exponent: 65537 (0x10001)
        X509v3 extensions:
            X509v3 Basic Constraints: 
                CA:FALSE
            Netscape Cert Type: 
                SSL Server
            Netscape Comment: 
                Easy-RSA Generated Server Certificate
            X509v3 Subject Key Identifier: 
                71:CA:E2:75:6B:0C:79:34:68:6B:A9:C9:91:77:97:64:17:E7:2F:AB
            X509v3 Authority Key Identifier: 
                keyid:26:79:30:9A:3F:A9:D4:A0:E4:18:8B:72:80:AD:FC:73:59:19:52:2A
                DirName:/C=CN/ST=Beijing/L=Beijing/O=EverString/OU=Operation/CN=EverString CA/name=ca/emailAddress=admin@everstring.com
                serial:EA:16:C0:74:CD:28:50:75

            X509v3 Extended Key Usage: 
                TLS Web Server Authentication
            X509v3 Key Usage: 
                Digital Signature, Key Encipherment
    Signature Algorithm: sha256WithRSAEncryption
         3a:85:81:cb:43:f4:eb:af:8c:11:c1:d4:f9:77:a7:8c:c8:60:
         4d:7b:fd:14:ad:8c:5a:4b:a9:83:23:5e:5e:86:f1:66:a7:01:
         4d:17:fe:15:bb:64:c9:50:52:67:cd:95:75:f0:41:a2:ab:ab:
         16:06:57:99:54:6f:2d:aa:5e:3b:7a:a6:94:c8:e6:5b:d9:c8:
         9a:6c:03:fd:77:86:af:5c:8c:a0:ea:5e:1b:1f:2c:31:fa:4d:
         60:49:df:20:f0:92:e1:78:91:a2:6c:91:aa:80:43:5b:99:ec:
         20:91:3b:e1:70:c5:71:f9:01:79:f7:16:bc:7c:a6:52:3b:6b:
         4b:bb:6f:63:72:8a:bc:52:13:1d:93:e1:f4:1e:a4:93:3c:d9:
         95:1b:99:93:6b:97:d4:c1:f5:16:b3:24:e1:45:d7:61:43:8c:
         9c:78:52:8d:b0:fb:10:83:8a:e7:73:c4:07:2e:68:32:8a:8b:
         eb:0f:ca:86:f8:c0:a0:18:10:91:3a:5c:ce:4d:d0:7f:9a:15:
         41:15:01:de:e3:60:17:58:6c:9e:b2:d0:86:12:0a:1a:50:30:
         5f:c5:53:06:c7:c7:c1:41:a0:73:18:f4:7f:99:27:71:be:06:
         b3:18:4f:c7:ed:42:4e:80:da:44:ac:5c:ed:80:5d:15:64:91:
         67:09:1a:14
-----BEGIN CERTIFICATE-----
MIIFMTCCBBmgAwIBAgIBATANBgkqhkiG9w0BAQsFADCBpDELMAkGA1UEBhMCQ04x
EDAOBgNVBAgTB0JlaWppbmcxEDAOBgNVBAcTB0JlaWppbmcxEzARBgNVBAoTCkV2
ZXJTdHJpbmcxEjAQBgNVBAsTCU9wZXJhdGlvbjEWMBQGA1UEAxMNRXZlclN0cmlu
ZyBDQTELMAkGA1UEKRMCY2ExIzAhBgkqhkiG9w0BCQEWFGFkbWluQGV2ZXJzdHJp
bmcuY29tMB4XDTE1MDYwODAwMDYzM1oXDTI1MDYwNTAwMDYzM1owgZkxCzAJBgNV
BAYTAkNOMRAwDgYDVQQIEwdCZWlqaW5nMRAwDgYDVQQHEwdCZWlqaW5nMRMwEQYD
VQQKEwpFdmVyU3RyaW5nMRIwEAYDVQQLEwlPcGVyYXRpb24xCzAJBgNVBAMTAkJK
MQswCQYDVQQpEwJCSjEjMCEGCSqGSIb3DQEJARYUYWRtaW5AZXZlcnN0cmluZy5j
b20wggEiMA0GCSqGSIb3DQEBAQUAA4IBDwAwggEKAoIBAQC2Ac66/rCfUg0Fhquo
sD2Eloa9rpUsdgz9yeFfm1f1zvJWJG8h7BBmCbvNVp9hVwZoL4wAG/Y3T5AoN+Cq
e/vstbLDVeTI9R1e5SbmhcE9XlgbwEQflYLRGZYmhWrM4UZR6bR9Vyx3CwUOz2ts
q4NOpjrDuijc1rCztlHih+Vccna4WWYu7zDvYt++vZ1pgYtt/N2tofcy2TWQF1RC
3bdnOyXQPgLt+pZ3KyeiH5IY47yTbQy8Qb4+Pd7MlDTyoQ2nEAnxyO5lLMPvnqNC
oDj4Kuej4riHm0q0mU7uYl6dTfzzJVoqQTepdtripQwmMx7lnKHdstAC1/B1GmBp
8ChjAgMBAAGjggF1MIIBcTAJBgNVHRMEAjAAMBEGCWCGSAGG+EIBAQQEAwIGQDA0
BglghkgBhvhCAQ0EJxYlRWFzeS1SU0EgR2VuZXJhdGVkIFNlcnZlciBDZXJ0aWZp
Y2F0ZTAdBgNVHQ4EFgQUccridWsMeTRoa6nJkXeXZBfnL6swgdkGA1UdIwSB0TCB
zoAUJnkwmj+p1KDkGItygK38c1kZUiqhgaqkgacwgaQxCzAJBgNVBAYTAkNOMRAw
DgYDVQQIEwdCZWlqaW5nMRAwDgYDVQQHEwdCZWlqaW5nMRMwEQYDVQQKEwpFdmVy
U3RyaW5nMRIwEAYDVQQLEwlPcGVyYXRpb24xFjAUBgNVBAMTDUV2ZXJTdHJpbmcg
Q0ExCzAJBgNVBCkTAmNhMSMwIQYJKoZIhvcNAQkBFhRhZG1pbkBldmVyc3RyaW5n
LmNvbYIJAOoWwHTNKFB1MBMGA1UdJQQMMAoGCCsGAQUFBwMBMAsGA1UdDwQEAwIF
oDANBgkqhkiG9w0BAQsFAAOCAQEAOoWBy0P066+MEcHU+XenjMhgTXv9FK2MWkup
gyNeXobxZqcBTRf+FbtkyVBSZ82VdfBBoqurFgZXmVRvLapeO3qmlMjmW9nImmwD
/XeGr1yMoOpeGx8sMfpNYEnfIPCS4XiRomyRqoBDW5nsIJE74XDFcfkBefcWvHym
UjtrS7tvY3KKvFITHZPh9B6kkzzZlRuZk2uX1MH1FrMk4UXXYUOMnHhSjbD7EIOK
53PEBy5oMoqL6w/KhvjAoBgQkTpczk3Qf5oVQRUB3uNgF1hsnrLQhhIKGlAwX8VT
BsfHwUGgcxj0f5kncb4GsxhPx+1CToDaRKxc7YBdFWSRZwkaFA==
-----END CERTIFICATE-----
